target datalayout = "e-m:e-p270:32:32-p271:32:32-p272:64:64-i64:64-i128:128-f80:128-n8:16:32:64-S128"
target triple = "x86_64-pc-linux-gnu"

%class.UPerfTest = type { ptr, i32, ptr, ptr, ptr, ptr, ptr, i8, ptr, ptr, i32, ptr, i32, i8, ptr, i32, i8, i8, i32, i32, i32, ptr, ptr, ptr }

@.str.5 = private unnamed_addr constant [2 x i8] c"*\00", align 1
@.str.6 = private unnamed_addr constant [5 x i8] c"LIST\00", align 1

; Function Attrs: mustprogress uwtable
define noundef signext i8 @_ZN9UPerfTest7runTestEPcS0_(ptr noundef nonnull align 8 dereferenceable(160) %0, ptr noundef %1, ptr noundef %2) #2 align 2 {
  %4 = alloca ptr, align 8
  %5 = alloca ptr, align 8
  %6 = alloca ptr, align 8
  %7 = alloca i8, align 1
  %8 = alloca ptr, align 8
  store ptr %0, ptr %4, align 8, !tbaa !8
  store ptr %1, ptr %5, align 8, !tbaa !51
  store ptr %2, ptr %6, align 8, !tbaa !51
  %9 = load ptr, ptr %4, align 8
  call void @llvm.lifetime.start.p0(i64 1, ptr %7) #17
  call void @llvm.lifetime.start.p0(i64 8, ptr %8) #17
  store ptr null, ptr %8, align 8, !tbaa !51
  %10 = load ptr, ptr %5, align 8, !tbaa !51
  %11 = icmp ne ptr %10, null
  br i1 %11, label %12, label %15

12:                                               ; preds = %3
  %13 = load ptr, ptr %5, align 8, !tbaa !51
  %14 = call noundef ptr @strchr(ptr noundef %13, i32 noundef 47) #18
  store ptr %14, ptr %8, align 8, !tbaa !51
  br label %15

15:                                               ; preds = %12, %3
  %16 = load ptr, ptr %8, align 8, !tbaa !51
  %17 = icmp ne ptr %16, null
  br i1 %17, label %18, label %23

18:                                               ; preds = %15
  %19 = load ptr, ptr %8, align 8, !tbaa !51
  %20 = getelementptr inbounds i8, ptr %19, i64 1
  %21 = getelementptr inbounds nuw %class.UPerfTest, ptr %9, i32 0, i32 23
  store ptr %20, ptr %21, align 8, !tbaa !67
  %22 = load ptr, ptr %8, align 8, !tbaa !51
  store i8 0, ptr %22, align 1, !tbaa !65
  br label %25

23:                                               ; preds = %15
  %24 = getelementptr inbounds nuw %class.UPerfTest, ptr %9, i32 0, i32 23
  store ptr null, ptr %24, align 8, !tbaa !67
  br label %25

25:                                               ; preds = %23, %18
  %26 = load ptr, ptr %5, align 8, !tbaa !51
  %27 = icmp ne ptr %26, null
  br i1 %27, label %28, label %38

28:                                               ; preds = %25
  %29 = load ptr, ptr %5, align 8, !tbaa !51
  %30 = getelementptr inbounds i8, ptr %29, i64 0
  %31 = load i8, ptr %30, align 1, !tbaa !65
  %32 = sext i8 %31 to i32
  %33 = icmp eq i32 %32, 0
  br i1 %33, label %38, label %34

34:                                               ; preds = %28
  %35 = load ptr, ptr %5, align 8, !tbaa !51
  %36 = call i32 @strcmp(ptr noundef %35, ptr noundef @.str.5) #18
  %37 = icmp eq i32 %36, 0
  br i1 %37, label %38, label %43

38:                                               ; preds = %34, %28, %25
  %39 = load ptr, ptr %9, align 8, !tbaa !16
  %40 = getelementptr inbounds ptr, ptr %39, i64 4
  %41 = load ptr, ptr %40, align 8
  %42 = call noundef signext i8 %41(ptr noundef nonnull align 8 dereferenceable(160) %9, ptr noundef null, ptr noundef null)
  store i8 %42, ptr %7, align 1, !tbaa !65
  br label %59

43:                                               ; preds = %34
  %44 = load ptr, ptr %5, align 8, !tbaa !51
  %45 = call i32 @strcmp(ptr noundef %44, ptr noundef @.str.6) #18
  %46 = icmp eq i32 %45, 0
  br i1 %46, label %47, label %51

47:                                               ; preds = %43
  %48 = load ptr, ptr %9, align 8, !tbaa !16
  %49 = getelementptr inbounds ptr, ptr %48, i64 0
  %50 = load ptr, ptr %49, align 8
  call void %50(ptr noundef nonnull align 8 dereferenceable(160) %9)
  store i8 1, ptr %7, align 1, !tbaa !65
  br label %58

51:                                               ; preds = %43
  %52 = load ptr, ptr %5, align 8, !tbaa !51
  %53 = load ptr, ptr %6, align 8, !tbaa !51
  %54 = load ptr, ptr %9, align 8, !tbaa !16
  %55 = getelementptr inbounds ptr, ptr %54, i64 4
  %56 = load ptr, ptr %55, align 8
  %57 = call noundef signext i8 %56(ptr noundef nonnull align 8 dereferenceable(160) %9, ptr noundef %52, ptr noundef %53)
  store i8 %57, ptr %7, align 1, !tbaa !65
  br label %58

58:                                               ; preds = %51, %47
  br label %59

59:                                               ; preds = %58, %38
  %60 = load ptr, ptr %8, align 8, !tbaa !51
  %61 = icmp ne ptr %60, null
  br i1 %61, label %62, label %64

62:                                               ; preds = %59
  %63 = load ptr, ptr %8, align 8, !tbaa !51
  store i8 47, ptr %63, align 1, !tbaa !65
  br label %64

64:                                               ; preds = %62, %59
  %65 = load i8, ptr %7, align 1, !tbaa !65
  call void @llvm.lifetime.end.p0(i64 8, ptr %8) #17
  call void @llvm.lifetime.end.p0(i64 1, ptr %7) #17
  ret i8 %65
}