; Function Attrs: mustprogress uwtable
define noundef signext i8 @_ZN9UPerfTest7runTestEPcS0_(ptr noundef nonnull align 8 dereferenceable(160) initializes((152, 160)) %0, ptr noundef %1, ptr noundef %2) local_unnamed_addr #3 align 2 {
  %.not = icmp eq ptr %1, null
  br i1 %.not, label %.thread38, label %9

.thread38:                                        ; preds = %3
  %4 = getelementptr inbounds nuw i8, ptr %0, i64 152
  store ptr null, ptr %4, align 8, !tbaa !51
  %5 = load ptr, ptr %0, align 8, !tbaa !3
  %6 = getelementptr inbounds nuw i8, ptr %5, i64 32
  %7 = load ptr, ptr %6, align 8
  %8 = tail call noundef signext i8 %7(ptr noundef nonnull align 8 dereferenceable(160) %0, ptr noundef null, ptr noundef null)
  br label %35

9:                                                ; preds = %3
  %10 = tail call noundef ptr @strchr(ptr noundef nonnull dereferenceable(1) %1, i32 noundef 47) #27
  %.not16 = icmp eq ptr %10, null
  br i1 %.not16, label %13, label %.thread23

.thread23:                                        ; preds = %9
  %11 = getelementptr inbounds nuw i8, ptr %10, i64 1
  %12 = getelementptr inbounds nuw i8, ptr %0, i64 152
  store ptr %11, ptr %12, align 8, !tbaa !51
  store i8 0, ptr %10, align 1, !tbaa !53
  br label %15

13:                                               ; preds = %9
  %14 = getelementptr inbounds nuw i8, ptr %0, i64 152
  store ptr null, ptr %14, align 8, !tbaa !51
  br label %15

15:                                               ; preds = %13, %.thread23
  %16 = load i8, ptr %1, align 1, !tbaa !53
  switch i8 %16, label %.tail.thread [
    i8 0, label %20
    i8 42, label %.tail
  ]

.tail:                                            ; preds = %15
  %17 = getelementptr inbounds nuw i8, ptr %1, i64 1
  %18 = load i8, ptr %17, align 1
  %19 = icmp eq i8 %18, 0
  br i1 %19, label %20, label %.tail.thread

20:                                               ; preds = %15, %.tail
  %21 = load ptr, ptr %0, align 8, !tbaa !3
  %22 = getelementptr inbounds nuw i8, ptr %21, i64 32
  %23 = load ptr, ptr %22, align 8
  %24 = tail call noundef signext i8 %23(ptr noundef nonnull align 8 dereferenceable(160) %0, ptr noundef null, ptr noundef null)
  br i1 %.not16, label %35, label %34

.tail.thread:                                     ; preds = %15, %.tail
  %25 = tail call i32 @strcmp(ptr noundef nonnull dereferenceable(1) %1, ptr noundef nonnull dereferenceable(5) @.str.6) #27
  %26 = icmp eq i32 %25, 0
  %27 = load ptr, ptr %0, align 8, !tbaa !3
  br i1 %26, label %28, label %30

28:                                               ; preds = %.tail.thread
  %29 = load ptr, ptr %27, align 8
  tail call void %29(ptr noundef nonnull align 8 dereferenceable(160) %0)
  br i1 %.not16, label %35, label %34

30:                                               ; preds = %.tail.thread
  %31 = getelementptr inbounds nuw i8, ptr %27, i64 32
  %32 = load ptr, ptr %31, align 8
  %33 = tail call noundef signext i8 %32(ptr noundef nonnull align 8 dereferenceable(160) %0, ptr noundef nonnull %1, ptr noundef %2)
  br i1 %.not16, label %35, label %34

34:                                               ; preds = %28, %20, %30
  %.01436 = phi i8 [ %24, %20 ], [ %33, %30 ], [ 1, %28 ]
  store i8 47, ptr %10, align 1, !tbaa !53
  br label %35

35:                                               ; preds = %.thread38, %28, %20, %34, %30
  %.01437 = phi i8 [ %24, %20 ], [ %.01436, %34 ], [ %33, %30 ], [ 1, %28 ], [ %8, %.thread38 ]
  ret i8 %.01437
}